target datalayout = "e-m:e-p270:32:32-p271:32:32-p272:64:64-i64:64-i128:128-f80:128-n8:16:32:64-S128"
target triple = "x86_64-pc-linux-gnu"

%struct.darktable_t = type { %struct.dt_codepath_t, i32, i32, ptr, ptr, ptr, ptr, ptr, ptr, ptr, ptr, ptr, ptr, ptr, ptr, ptr, ptr, ptr, ptr, ptr, ptr, ptr, ptr, ptr, ptr, ptr, ptr, ptr, ptr, ptr, [64 x %struct.dt_pthread_mutex_t], %struct.dt_pthread_mutex_t, %struct.dt_pthread_mutex_t, %struct.dt_pthread_mutex_t, %struct.dt_pthread_mutex_t, %struct.dt_pthread_mutex_t, ptr, ptr, ptr, ptr, ptr, ptr, ptr, ptr, ptr, ptr, ptr, ptr, ptr, %struct.dt_lua_state_t, ptr, double, ptr, i32, [47 x i32], i32, i32, ptr, ptr, %struct.dt_sys_resources_t, %struct.dt_backthumb_t, %struct.dt_gimp_t }
%struct.dt_codepath_t = type { i8, [3 x i8] }
%struct.dt_pthread_mutex_t = type { %union.pthread_mutex_t }
%union.pthread_mutex_t = type { %struct.__pthread_mutex_s }
%struct.__pthread_mutex_s = type { i32, i32, i32, i32, i32, i16, i16, %struct.__pthread_internal_list }
%struct.__pthread_internal_list = type { ptr, ptr }
%struct.dt_lua_state_t = type { i32 }
%struct.dt_sys_resources_t = type { i64, i64, ptr, ptr, i32 }
%struct.dt_backthumb_t = type { double, double, i32, i32, i32, i32 }
%struct.dt_gimp_t = type { i32, ptr, ptr, i32, i32 }
%struct._GtkTreeIter = type { i32, ptr, ptr, ptr }

@darktable = external global %struct.darktable_t, align 8
@.str.48 = private unnamed_addr constant [119 x i8] c"generated/home/dtcxzyw/WorkSpace/Projects/compilers/llvm-opt-benchmark/bench/darktable/darktable/src/gui/preferences.c\00", align 1
@.str.476 = private unnamed_addr constant [41 x i8] c"[sql] %s:%d, function %s(): prepare \22%s\22\00", align 1
@__FUNCTION__.tree_insert_presets = private unnamed_addr constant [20 x i8] c"tree_insert_presets\00", align 1
@.str.477 = private unnamed_addr constant [228 x i8] c"SELECT rowid, name, operation, autoapply, model, maker, lens, iso_min, iso_max, exposure_min, exposure_max, aperture_min, aperture_max, focal_length_min, focal_length_max, writeprotect FROM data.presets ORDER BY operation, name\00", align 1
@stderr = external global ptr, align 8
@.str.478 = private unnamed_addr constant [53 x i8] c"sqlite3 error: %s:%d, function %s(), query \22%s\22: %s\0A\00", align 1

; Function Attrs: nounwind uwtable
define internal void @tree_insert_presets(ptr noundef %0) #0 {
  %2 = alloca ptr, align 8
  %3 = alloca %struct._GtkTreeIter, align 8
  %4 = alloca %struct._GtkTreeIter, align 8
  %5 = alloca ptr, align 8
  %6 = alloca ptr, align 8
  %7 = alloca ptr, align 8
  %8 = alloca ptr, align 8
  %9 = alloca i32, align 4
  %10 = alloca ptr, align 8
  %11 = alloca ptr, align 8
  store ptr %0, ptr %2, align 8, !tbaa !105
  call void @llvm.lifetime.start.p0(i64 32, ptr %3) #10
  call void @llvm.lifetime.start.p0(i64 32, ptr %4) #10
  call void @llvm.lifetime.start.p0(i64 8, ptr %5) #10
  call void @llvm.lifetime.start.p0(i64 8, ptr %6) #10
  store ptr null, ptr %6, align 8, !tbaa !73
  call void @llvm.lifetime.start.p0(i64 8, ptr %7) #10
  call void @llvm.lifetime.start.p0(i64 8, ptr %8) #10
  call void @_create_lock_check_pixbuf(ptr noundef %7, ptr noundef %8)
  br label %12

12:                                               ; preds = %1
  br label %13

13:                                               ; preds = %12
  %14 = load i32, ptr getelementptr inbounds nuw (%struct.darktable_t, ptr @darktable, i32 0, i32 2), align 8, !tbaa !82
  %15 = and i32 256, %14
  %16 = icmp ne i32 %15, 0
  br i1 %16, label %17, label %23

17:                                               ; preds = %13
  %18 = load i32, ptr getelementptr inbounds nuw (%struct.darktable_t, ptr @darktable, i32 0, i32 2), align 8, !tbaa !82
  %19 = xor i32 %18, -1
  %20 = and i32 0, %19
  %21 = icmp ne i32 %20, 0
  br i1 %21, label %23, label %22

22:                                               ; preds = %17
  call void (ptr, ...) @dt_print_ext(ptr noundef @.str.476, ptr noundef @.str.48, i32 noundef 823, ptr noundef @__FUNCTION__.tree_insert_presets, ptr noundef @.str.477)
  br label %23

23:                                               ; preds = %22, %17, %13
  br label %24

24:                                               ; preds = %23
  br label %25

25:                                               ; preds = %24
  call void @llvm.lifetime.start.p0(i64 4, ptr %9) #10
  %26 = load ptr, ptr getelementptr inbounds nuw (%struct.darktable_t, ptr @darktable, i32 0, i32 18), align 8, !tbaa !139
  %27 = call ptr @dt_database_get(ptr noundef %26)
  %28 = call i32 @sqlite3_prepare_v2(ptr noundef %27, ptr noundef @.str.477, i32 noundef -1, ptr noundef %5, ptr noundef null)
  store i32 %28, ptr %9, align 4, !tbaa !57
  %29 = load i32, ptr %9, align 4, !tbaa !57
  %30 = icmp ne i32 %29, 0
  br i1 %30, label %31, label %37

31:                                               ; preds = %25
  %32 = load ptr, ptr @stderr, align 8, !tbaa !140
  %33 = load ptr, ptr getelementptr inbounds nuw (%struct.darktable_t, ptr @darktable, i32 0, i32 18), align 8, !tbaa !139
  %34 = call ptr @dt_database_get(ptr noundef %33)
  %35 = call ptr @sqlite3_errmsg(ptr noundef %34)
  %36 = call i32 (ptr, ptr, ...) @fprintf(ptr noundef %32, ptr noundef @.str.478, ptr noundef @.str.48, i32 noundef 823, ptr noundef @__FUNCTION__.tree_insert_presets, ptr noundef @.str.477, ptr noundef %35) #10
  br label %37

37:                                               ; preds = %31, %25
  call void @llvm.lifetime.end.p0(i64 4, ptr %9) #10
  br label %38

38:                                               ; preds = %37
  br label %39

39:                                               ; preds = %38
  br label %40

40:                                               ; preds = %74, %39
  %41 = load ptr, ptr %5, align 8, !tbaa !142
  %42 = call i32 @sqlite3_step(ptr noundef %41)
  %43 = icmp eq i32 %42, 100
  br i1 %43, label %44, label %80

44:                                               ; preds = %40
  call void @llvm.lifetime.start.p0(i64 8, ptr %10) #10
  %45 = load ptr, ptr %5, align 8, !tbaa !142
  %46 = call ptr @sqlite3_column_text(ptr noundef %45, i32 noundef 2)
  store ptr %46, ptr %10, align 8, !tbaa !73
  %47 = load ptr, ptr %10, align 8, !tbaa !73
  %48 = load ptr, ptr %6, align 8, !tbaa !73
  %49 = call i32 @g_strcmp0(ptr noundef %47, ptr noundef %48)
  %50 = icmp ne i32 %49, 0
  br i1 %50, label %51, label %74

51:                                               ; preds = %44
  call void @llvm.lifetime.start.p0(i64 8, ptr %11) #10
  %52 = load ptr, ptr %10, align 8, !tbaa !73
  %53 = call ptr @dt_iop_get_localized_name(ptr noundef %52)
  %54 = call noalias ptr @g_strdup(ptr noundef %53)
  store ptr %54, ptr %11, align 8, !tbaa !73
  %55 = load ptr, ptr %11, align 8, !tbaa !73
  %56 = icmp eq ptr %55, null
  br i1 %56, label %57, label %61

57:                                               ; preds = %51
  %58 = load ptr, ptr %10, align 8, !tbaa !73
  %59 = call ptr @dt_lib_get_localized_name(ptr noundef %58)
  %60 = call noalias ptr @g_strdup(ptr noundef %59)
  store ptr %60, ptr %11, align 8, !tbaa !73
  br label %61

61:                                               ; preds = %57, %51
  %62 = load ptr, ptr %11, align 8, !tbaa !73
  %63 = icmp eq ptr %62, null
  br i1 %63, label %64, label %67

64:                                               ; preds = %61
  %65 = load ptr, ptr %10, align 8, !tbaa !73
  %66 = call noalias ptr @g_strdup(ptr noundef %65)
  store ptr %66, ptr %11, align 8, !tbaa !73
  br label %67

67:                                               ; preds = %64, %61
  %68 = load ptr, ptr %2, align 8, !tbaa !105
  %69 = load ptr, ptr %11, align 8, !tbaa !73
  call void (ptr, ptr, ptr, i32, ...) @gtk_tree_store_insert_with_values(ptr noundef %68, ptr noundef %4, ptr noundef null, i32 noundef -1, i32 noundef 2, ptr noundef %69, i32 noundef -1)
  %70 = load ptr, ptr %11, align 8, !tbaa !73
  call void @g_free(ptr noundef %70)
  %71 = load ptr, ptr %6, align 8, !tbaa !73
  call void @g_free(ptr noundef %71)
  %72 = load ptr, ptr %10, align 8, !tbaa !73
  %73 = call noalias ptr @g_strdup(ptr noundef %72)
  store ptr %73, ptr %6, align 8, !tbaa !73
  call void @llvm.lifetime.end.p0(i64 8, ptr %11) #10
  br label %74

74:                                               ; preds = %67, %44
  %75 = load ptr, ptr %2, align 8, !tbaa !105
  call void @gtk_tree_store_insert(ptr noundef %75, ptr noundef %3, ptr noundef %4, i32 noundef -1)
  %76 = load ptr, ptr %2, align 8, !tbaa !105
  %77 = load ptr, ptr %5, align 8, !tbaa !142
  %78 = load ptr, ptr %7, align 8, !tbaa !144
  %79 = load ptr, ptr %8, align 8, !tbaa !144
  call void @_update_preset_line(ptr noundef %76, ptr noundef %3, ptr noundef %77, ptr noundef %78, ptr noundef %79)
  call void @llvm.lifetime.end.p0(i64 8, ptr %10) #10
  br label %40

80:                                               ; preds = %40
  %81 = load ptr, ptr %6, align 8, !tbaa !73
  call void @g_free(ptr noundef %81)
  %82 = load ptr, ptr %5, align 8, !tbaa !142
  %83 = call i32 @sqlite3_finalize(ptr noundef %82)
  %84 = load ptr, ptr %7, align 8, !tbaa !144
  call void @g_object_unref(ptr noundef %84)
  %85 = load ptr, ptr %8, align 8, !tbaa !144
  call void @g_object_unref(ptr noundef %85)
  call void @llvm.lifetime.end.p0(i64 8, ptr %8) #10
  call void @llvm.lifetime.end.p0(i64 8, ptr %7) #10
  call void @llvm.lifetime.end.p0(i64 8, ptr %6) #10
  call void @llvm.lifetime.end.p0(i64 8, ptr %5) #10
  call void @llvm.lifetime.end.p0(i64 32, ptr %4) #10
  call void @llvm.lifetime.end.p0(i64 32, ptr %3) #10
  ret void
}