; Function Attrs: nounwind uwtable
define internal fastcc void @tree_insert_presets(ptr noundef %0) unnamed_addr #0 {
  %2 = alloca %struct._GtkTreeIter, align 8
  %3 = alloca %struct._GtkTreeIter, align 8
  %4 = alloca ptr, align 8
  %5 = alloca ptr, align 8
  %6 = alloca ptr, align 8
  call void @llvm.lifetime.start.p0(i64 32, ptr nonnull %2) #12
  call void @llvm.lifetime.start.p0(i64 32, ptr nonnull %3) #12
  call void @llvm.lifetime.start.p0(i64 8, ptr nonnull %4) #12
  call void @llvm.lifetime.start.p0(i64 8, ptr nonnull %5) #12
  call void @llvm.lifetime.start.p0(i64 8, ptr nonnull %6) #12
  call fastcc void @_create_lock_check_pixbuf(ptr noundef %5, ptr noundef %6)
  %7 = load i32, ptr getelementptr inbounds nuw (i8, ptr @darktable, i64 8), align 8, !tbaa !78
  %8 = and i32 %7, 256
  %.not = icmp eq i32 %8, 0
  br i1 %.not, label %10, label %9

9:                                                ; preds = %1
  tail call void (ptr, ...) @dt_print_ext(ptr noundef nonnull @.str.476, ptr noundef nonnull @.str.48, i32 noundef 823, ptr noundef nonnull @__FUNCTION__.tree_insert_presets, ptr noundef nonnull @.str.477) #12
  br label %10

10:                                               ; preds = %9, %1
  %11 = load ptr, ptr getelementptr inbounds nuw (i8, ptr @darktable, i64 136), align 8, !tbaa !99
  %12 = tail call ptr @dt_database_get(ptr noundef %11) #12
  %13 = call i32 @sqlite3_prepare_v2(ptr noundef %12, ptr noundef nonnull @.str.477, i32 noundef -1, ptr noundef nonnull %4, ptr noundef null) #12
  %.not18 = icmp eq i32 %13, 0
  br i1 %.not18, label %20, label %14

14:                                               ; preds = %10
  %15 = load ptr, ptr @stderr, align 8, !tbaa !100
  %16 = load ptr, ptr getelementptr inbounds nuw (i8, ptr @darktable, i64 136), align 8, !tbaa !99
  %17 = call ptr @dt_database_get(ptr noundef %16) #12
  %18 = call ptr @sqlite3_errmsg(ptr noundef %17) #12
  %19 = call i32 (ptr, ptr, ...) @fprintf(ptr noundef %15, ptr noundef nonnull @.str.478, ptr noundef nonnull @.str.48, i32 noundef 823, ptr noundef nonnull @__FUNCTION__.tree_insert_presets, ptr noundef nonnull @.str.477, ptr noundef %18) #16
  br label %20

20:                                               ; preds = %14, %10
  %21 = load ptr, ptr %4, align 8, !tbaa !102
  %22 = call i32 @sqlite3_step(ptr noundef %21) #12
  %23 = icmp eq i32 %22, 100
  br i1 %23, label %.lr.ph, label %._crit_edge

.lr.ph:                                           ; preds = %20, %38
  %.01521 = phi ptr [ %.116, %38 ], [ null, %20 ]
  %24 = load ptr, ptr %4, align 8, !tbaa !102
  %25 = call ptr @sqlite3_column_text(ptr noundef %24, i32 noundef 2) #12
  %26 = call i32 @g_strcmp0(ptr noundef %25, ptr noundef %.01521) #12
  %.not19 = icmp eq i32 %26, 0
  br i1 %.not19, label %38, label %27

27:                                               ; preds = %.lr.ph
  %28 = call ptr @dt_iop_get_localized_name(ptr noundef %25) #12
  %29 = call noalias ptr @g_strdup(ptr noundef %28) #12
  %30 = icmp eq ptr %29, null
  br i1 %30, label %31, label %.thread

31:                                               ; preds = %27
  %32 = call ptr @dt_lib_get_localized_name(ptr noundef %25) #12
  %33 = call noalias ptr @g_strdup(ptr noundef %32) #12
  %34 = icmp eq ptr %33, null
  br i1 %34, label %35, label %.thread

35:                                               ; preds = %31
  %36 = call noalias ptr @g_strdup(ptr noundef %25) #12
  br label %.thread

.thread:                                          ; preds = %27, %35, %31
  %.1 = phi ptr [ %36, %35 ], [ %33, %31 ], [ %29, %27 ]
  call void (ptr, ptr, ptr, i32, ...) @gtk_tree_store_insert_with_values(ptr noundef %0, ptr noundef nonnull %3, ptr noundef null, i32 noundef -1, i32 noundef 2, ptr noundef %.1, i32 noundef -1) #12
  call void @g_free(ptr noundef %.1) #12
  call void @g_free(ptr noundef %.01521) #12
  %37 = call noalias ptr @g_strdup(ptr noundef %25) #12
  br label %38

38:                                               ; preds = %.thread, %.lr.ph
  %.116 = phi ptr [ %37, %.thread ], [ %.01521, %.lr.ph ]
  call void @gtk_tree_store_insert(ptr noundef %0, ptr noundef nonnull %2, ptr noundef nonnull %3, i32 noundef -1) #12
  %39 = load ptr, ptr %4, align 8, !tbaa !102
  %40 = load ptr, ptr %5, align 8, !tbaa !104
  %41 = load ptr, ptr %6, align 8, !tbaa !104
  call fastcc void @_update_preset_line(ptr noundef %0, ptr noundef nonnull %2, ptr noundef %39, ptr noundef %40, ptr noundef %41)
  %42 = load ptr, ptr %4, align 8, !tbaa !102
  %43 = call i32 @sqlite3_step(ptr noundef %42) #12
  %44 = icmp eq i32 %43, 100
  br i1 %44, label %.lr.ph, label %._crit_edge

._crit_edge:                                      ; preds = %38, %20
  %.015.lcssa = phi ptr [ null, %20 ], [ %.116, %38 ]
  call void @g_free(ptr noundef %.015.lcssa) #12
  %45 = load ptr, ptr %4, align 8, !tbaa !102
  %46 = call i32 @sqlite3_finalize(ptr noundef %45) #12
  %47 = load ptr, ptr %5, align 8, !tbaa !104
  call void @g_object_unref(ptr noundef %47) #12
  %48 = load ptr, ptr %6, align 8, !tbaa !104
  call void @g_object_unref(ptr noundef %48) #12
  call void @llvm.lifetime.end.p0(i64 8, ptr nonnull %6) #12
  call void @llvm.lifetime.end.p0(i64 8, ptr nonnull %5) #12
  call void @llvm.lifetime.end.p0(i64 8, ptr nonnull %4) #12
  call void @llvm.lifetime.end.p0(i64 32, ptr nonnull %3) #12
  call void @llvm.lifetime.end.p0(i64 32, ptr nonnull %2) #12
  ret void
}